; Function Attrs: nounwind uwtable
define dso_local void @jw_object_bool(ptr noundef %0, ptr noundef %1, i32 noundef %2) local_unnamed_addr #3 {
  %.not = icmp eq i32 %2, 0
  tail call fastcc void @object_common(ptr noundef %0, ptr noundef %1)
  br i1 %.not, label %5, label %4

4:                                                ; preds = %3
  tail call void @strbuf_add(ptr noundef %0, ptr noundef nonnull @.str.1, i64 noundef 4) #8
  br label %6

5:                                                ; preds = %3
  tail call void @strbuf_add(ptr noundef %0, ptr noundef nonnull @.str.2, i64 noundef 5) #8
  br label %6

6:                                                ; preds = %5, %4
  ret void
}